; ModuleID = '27/2015.c'
source_filename = "27/2015.c"
target datalayout = "e-m:e-p270:32:32-p271:32:32-p272:64:64-i64:64-f80:128-n8:16:32:64-S128"
target triple = "x86_64-pc-linux-gnu"

@.str = private unnamed_addr constant [3 x i8] c"%d\00", align 1
@.str.1 = private unnamed_addr constant [7 x i8] c"%f%f%f\00", align 1
@.str.2 = private unnamed_addr constant [12 x i8] c"x1=x2=%.5f\0A\00", align 1
@.str.3 = private unnamed_addr constant [17 x i8] c"x1=%.5f;x2=%.5f\0A\00", align 1
@.str.4 = private unnamed_addr constant [15 x i8] c"x1=%.5f+%.5fi;\00", align 1
@.str.5 = private unnamed_addr constant [15 x i8] c"x2=%.5f-%.5fi\0A\00", align 1

; Function Attrs: noinline nounwind uwtable
define dso_local i32 @main() #0 {
  %1 = alloca i32, align 4
  %2 = alloca i32, align 4
  %3 = alloca i32, align 4
  %4 = alloca double, align 8
  %5 = alloca double, align 8
  %6 = alloca double, align 8
  %7 = alloca double, align 8
  %8 = alloca double, align 8
  %9 = alloca [100 x float], align 16
  %10 = alloca [100 x float], align 16
  %11 = alloca [100 x float], align 16
  store i32 0, i32* %1, align 4
  %12 = call i32 (i8*, ...) @__isoc99_scanf(i8* getelementptr inbounds ([3 x i8], [3 x i8]* @.str, i64 0, i64 0), i32* %2)
  store i32 0, i32* %3, align 4
  br label %13

13:                                               ; preds = %98, %0
  %14 = load i32, i32* %3, align 4
  %15 = load i32, i32* %2, align 4
  %16 = icmp slt i32 %14, %15
  br i1 %16, label %17, label %101

17:                                               ; preds = %13
  %18 = load i32, i32* %3, align 4
  %19 = sext i32 %18 to i64
  %20 = getelementptr inbounds [100 x float], [100 x float]* %9, i64 0, i64 %19
  %21 = load i32, i32* %3, align 4
  %22 = sext i32 %21 to i64
  %23 = getelementptr inbounds [100 x float], [100 x float]* %10, i64 0, i64 %22
  %24 = load i32, i32* %3, align 4
  %25 = sext i32 %24 to i64
  %26 = getelementptr inbounds [100 x float], [100 x float]* %11, i64 0, i64 %25
  %27 = call i32 (i8*, ...) @__isoc99_scanf(i8* getelementptr inbounds ([7 x i8], [7 x i8]* @.str.1, i64 0, i64 0), float* %20, float* %23, float* %26)
  %28 = load i32, i32* %3, align 4
  %29 = sext i32 %28 to i64
  %30 = getelementptr inbounds [100 x float], [100 x float]* %10, i64 0, i64 %29
  %31 = load float, float* %30, align 4
  %32 = load i32, i32* %3, align 4
  %33 = sext i32 %32 to i64
  %34 = getelementptr inbounds [100 x float], [100 x float]* %10, i64 0, i64 %33
  %35 = load float, float* %34, align 4
  %36 = fmul float %31, %35
  %37 = load i32, i32* %3, align 4
  %38 = sext i32 %37 to i64
  %39 = getelementptr inbounds [100 x float], [100 x float]* %9, i64 0, i64 %38
  %40 = load float, float* %39, align 4
  %41 = fmul float 4.000000e+00, %40
  %42 = load i32, i32* %3, align 4
  %43 = sext i32 %42 to i64
  %44 = getelementptr inbounds [100 x float], [100 x float]* %11, i64 0, i64 %43
  %45 = load float, float* %44, align 4
  %46 = fmul float %41, %45
  %47 = fsub float %36, %46
  %48 = fpext float %47 to double
  store double %48, double* %4, align 8
  %49 = load i32, i32* %3, align 4
  %50 = sext i32 %49 to i64
  %51 = getelementptr inbounds [100 x float], [100 x float]* %10, i64 0, i64 %50
  %52 = load float, float* %51, align 4
  %53 = load i32, i32* %3, align 4
  %54 = sext i32 %53 to i64
  %55 = getelementptr inbounds [100 x float], [100 x float]* %9, i64 0, i64 %54
  %56 = load float, float* %55, align 4
  %57 = fmul float 2.000000e+00, %56
  %58 = fdiv float %52, %57
  %59 = fneg float %58
  %60 = fpext float %59 to double
  store double %60, double* %5, align 8
  %61 = load double, double* %4, align 8
  %62 = call double @llvm.fabs.f64(double %61)
  %63 = call double @sqrt(double %62) #4
  %64 = load i32, i32* %3, align 4
  %65 = sext i32 %64 to i64
  %66 = getelementptr inbounds [100 x float], [100 x float]* %9, i64 0, i64 %65
  %67 = load float, float* %66, align 4
  %68 = fmul float 2.000000e+00, %67
  %69 = fpext float %68 to double
  %70 = fdiv double %63, %69
  store double %70, double* %6, align 8
  %71 = load double, double* %4, align 8
  %72 = fcmp oeq double %71, 0.000000e+00
  br i1 %72, label %73, label %76

73:                                               ; preds = %17
  %74 = load double, double* %5, align 8
  %75 = call i32 (i8*, ...) @printf(i8* getelementptr inbounds ([12 x i8], [12 x i8]* @.str.2, i64 0, i64 0), double %74)
  br label %97

76:                                               ; preds = %17
  %77 = load double, double* %4, align 8
  %78 = fcmp ogt double %77, 0.000000e+00
  br i1 %78, label %79, label %89

79:                                               ; preds = %76
  %80 = load double, double* %5, align 8
  %81 = load double, double* %6, align 8
  %82 = fadd double %80, %81
  store double %82, double* %7, align 8
  %83 = load double, double* %5, align 8
  %84 = load double, double* %6, align 8
  %85 = fsub double %83, %84
  store double %85, double* %8, align 8
  %86 = load double, double* %7, align 8
  %87 = load double, double* %8, align 8
  %88 = call i32 (i8*, ...) @printf(i8* getelementptr inbounds ([17 x i8], [17 x i8]* @.str.3, i64 0, i64 0), double %86, double %87)
  br label %96

89:                                               ; preds = %76
  %90 = load double, double* %5, align 8
  %91 = load double, double* %6, align 8
  %92 = call i32 (i8*, ...) @printf(i8* getelementptr inbounds ([15 x i8], [15 x i8]* @.str.4, i64 0, i64 0), double %90, double %91)
  %93 = load double, double* %5, align 8
  %94 = load double, double* %6, align 8
  %95 = call i32 (i8*, ...) @printf(i8* getelementptr inbounds ([15 x i8], [15 x i8]* @.str.5, i64 0, i64 0), double %93, double %94)
  br label %96

96:                                               ; preds = %89, %79
  br label %97

97:                                               ; preds = %96, %73
  br label %98

98:                                               ; preds = %97
  %99 = load i32, i32* %3, align 4
  %100 = add nsw i32 %99, 1
  store i32 %100, i32* %3, align 4
  br label %13

101:                                              ; preds = %13
  ret i32 0
}

declare dso_local i32 @__isoc99_scanf(i8*, ...) #1

; Function Attrs: nounwind
declare dso_local double @sqrt(double) #2

; Function Attrs: nounwind readnone speculatable willreturn
declare double @llvm.fabs.f64(double) #3

declare dso_local i32 @printf(i8*, ...) #1


!llvm.module.flags = !{!0}
!llvm.ident = !{!1}

!0 = !{i32 1, !"wchar_size", i32 4}
!1 = !{!"clang version 10.0.0-4ubuntu1 "}
